; Function Attrs: mustprogress uwtable
define noundef i32 @_ZNK7Imf_3_415TiledOutputFile11levelHeightEi(ptr noundef nonnull readonly align 8 captures(none) dereferenceable(25) %0, i32 noundef %1) local_unnamed_addr #5 align 2 personality ptr @__gxx_personality_v0 {
  %3 = alloca %"class.std::__cxx11::basic_stringstream", align 8
  %4 = getelementptr inbounds nuw i8, ptr %0, i64 8
  %5 = load ptr, ptr %4, align 8, !tbaa !112
  %6 = getelementptr inbounds nuw i8, ptr %5, i64 148
  %7 = load i32, ptr %6, align 4, !tbaa !139
  %8 = getelementptr inbounds nuw i8, ptr %5, i64 152
  %9 = load i32, ptr %8, align 8, !tbaa !141
  %10 = getelementptr inbounds nuw i8, ptr %5, i64 76
  %11 = load i32, ptr %10, align 4, !tbaa !238
  %12 = invoke noundef i32 @_ZN7Imf_3_49levelSizeEiiiNS_17LevelRoundingModeE(i32 noundef %7, i32 noundef %9, i32 noundef %1, i32 noundef %11)
          to label %13 unwind label %14

13:                                               ; preds = %2
  ret i32 %12

14:                                               ; preds = %2
  %15 = landingpad { ptr, i32 }
          catch ptr @_ZTIN7Iex_3_47BaseExcE
  %16 = extractvalue { ptr, i32 } %15, 1
  %17 = tail call i32 @llvm.eh.typeid.for.p0(ptr nonnull @_ZTIN7Iex_3_47BaseExcE) #25
  %18 = icmp eq i32 %16, %17
  br i1 %18, label %19, label %49

19:                                               ; preds = %14
  %20 = extractvalue { ptr, i32 } %15, 0
  %21 = tail call ptr @__cxa_begin_catch(ptr %20) #25
  call void @llvm.lifetime.start.p0(i64 392, ptr nonnull %3) #25
  invoke void @_ZNSt7__cxx1118basic_stringstreamIcSt11char_traitsIcESaIcEEC1Ev(ptr noundef nonnull align 8 dereferenceable(128) %3)
          to label %22 unwind label %41

22:                                               ; preds = %19
  %23 = getelementptr inbounds nuw i8, ptr %3, i64 16
  %24 = invoke noundef nonnull align 8 dereferenceable(8) ptr @_ZSt16__ostream_insertIcSt11char_traitsIcEERSt13basic_ostreamIT_T0_ES6_PKS3_l(ptr noundef nonnull align 8 dereferenceable(8) %23, ptr noundef nonnull @.str.39, i64 noundef 43)
          to label %_ZStlsISt11char_traitsIcEERSt13basic_ostreamIcT_ES5_PKc.exit unwind label %43

_ZStlsISt11char_traitsIcEERSt13basic_ostreamIcT_ES5_PKc.exit: ; preds = %22
  %25 = getelementptr inbounds nuw i8, ptr %0, i64 16
  %26 = load ptr, ptr %25, align 8, !tbaa !117
  %27 = getelementptr inbounds nuw i8, ptr %26, i64 40
  %28 = load ptr, ptr %27, align 8, !tbaa !119
  %29 = invoke noundef ptr @_ZNK7Imf_3_47OStream8fileNameEv(ptr noundef nonnull align 8 dereferenceable(40) %28)
          to label %_ZNK7Imf_3_415TiledOutputFile8fileNameEv.exit unwind label %43

_ZNK7Imf_3_415TiledOutputFile8fileNameEv.exit:    ; preds = %_ZStlsISt11char_traitsIcEERSt13basic_ostreamIcT_ES5_PKc.exit
  %30 = invoke noundef nonnull align 8 dereferenceable(8) ptr @_ZStlsISt11char_traitsIcEERSt13basic_ostreamIcT_ES5_PKc(ptr noundef nonnull align 8 dereferenceable(8) %23, ptr noundef %29)
          to label %31 unwind label %43

31:                                               ; preds = %_ZNK7Imf_3_415TiledOutputFile8fileNameEv.exit
  %32 = invoke noundef nonnull align 8 dereferenceable(8) ptr @_ZSt16__ostream_insertIcSt11char_traitsIcEERSt13basic_ostreamIT_T0_ES6_PKS3_l(ptr noundef nonnull align 8 dereferenceable(8) %30, ptr noundef nonnull @.str.9, i64 noundef 3)
          to label %_ZStlsISt11char_traitsIcEERSt13basic_ostreamIcT_ES5_PKc.exit14 unwind label %43

_ZStlsISt11char_traitsIcEERSt13basic_ostreamIcT_ES5_PKc.exit14: ; preds = %31
  %33 = load ptr, ptr %21, align 8, !tbaa !105
  %34 = getelementptr inbounds nuw i8, ptr %33, i64 16
  %35 = load ptr, ptr %34, align 8
  %36 = call noundef ptr %35(ptr noundef nonnull align 8 dereferenceable(72) %21) #25
  %37 = invoke noundef nonnull align 8 dereferenceable(8) ptr @_ZStlsISt11char_traitsIcEERSt13basic_ostreamIcT_ES5_PKc(ptr noundef nonnull align 8 dereferenceable(8) %30, ptr noundef %36)
          to label %38 unwind label %43

38:                                               ; preds = %_ZStlsISt11char_traitsIcEERSt13basic_ostreamIcT_ES5_PKc.exit14
  %39 = invoke noundef nonnull align 8 dereferenceable(72) ptr @_ZN7Iex_3_47BaseExc6assignERNSt7__cxx1118basic_stringstreamIcSt11char_traitsIcESaIcEEE(ptr noundef nonnull align 8 dereferenceable(72) %21, ptr noundef nonnull align 8 dereferenceable(128) %3)
          to label %40 unwind label %43

40:                                               ; preds = %38
  call void @_ZNSt7__cxx1118basic_stringstreamIcSt11char_traitsIcESaIcEED1Ev(ptr noundef nonnull align 8 dereferenceable(128) %3) #25
  call void @llvm.lifetime.end.p0(i64 392, ptr nonnull %3) #25
  invoke void @__cxa_rethrow() #30
          to label %53 unwind label %46

41:                                               ; preds = %19
  %42 = landingpad { ptr, i32 }
          cleanup
  br label %45

43:                                               ; preds = %31, %_ZStlsISt11char_traitsIcEERSt13basic_ostreamIcT_ES5_PKc.exit, %22, %38, %_ZStlsISt11char_traitsIcEERSt13basic_ostreamIcT_ES5_PKc.exit14, %_ZNK7Imf_3_415TiledOutputFile8fileNameEv.exit
  %44 = landingpad { ptr, i32 }
          cleanup
  call void @_ZNSt7__cxx1118basic_stringstreamIcSt11char_traitsIcESaIcEED1Ev(ptr noundef nonnull align 8 dereferenceable(128) %3) #25
  br label %45

45:                                               ; preds = %43, %41
  %.pn = phi { ptr, i32 } [ %44, %43 ], [ %42, %41 ]
  call void @llvm.lifetime.end.p0(i64 392, ptr nonnull %3) #25
  br label %48

46:                                               ; preds = %40
  %47 = landingpad { ptr, i32 }
          cleanup
  br label %48

48:                                               ; preds = %46, %45
  %.pn12 = phi { ptr, i32 } [ %47, %46 ], [ %.pn, %45 ]
  invoke void @__cxa_end_catch()
          to label %49 unwind label %50

49:                                               ; preds = %48, %14
  %.merged = phi { ptr, i32 } [ %15, %14 ], [ %.pn12, %48 ]
  resume { ptr, i32 } %.merged

50:                                               ; preds = %48
  %51 = landingpad { ptr, i32 }
          catch ptr null
  %52 = extractvalue { ptr, i32 } %51, 0
  call void @__clang_call_terminate(ptr %52) #28
  unreachable

53:                                               ; preds = %40
  unreachable
}